target datalayout = "e-m:e-p270:32:32-p271:32:32-p272:64:64-i64:64-i128:128-f80:128-n8:16:32:64-S128"
target triple = "x86_64-pc-linux-gnu"

%struct._php_netstream_data_t = type { i32, i8, %struct.timeval, i8, i64 }
%struct.timeval = type { i64, i64 }
%union.__CONST_SOCKADDR_ARG = type { ptr }

; Function Attrs: inlinehint nounwind uwtable
define internal i32 @sock_sendto(ptr noundef %0, ptr noundef %1, i64 noundef %2, i32 noundef %3, ptr noundef %4, i32 noundef %5) #8 {
  %7 = alloca i32, align 4
  %8 = alloca ptr, align 8
  %9 = alloca ptr, align 8
  %10 = alloca i64, align 8
  %11 = alloca i32, align 4
  %12 = alloca ptr, align 8
  %13 = alloca i32, align 4
  %14 = alloca i32, align 4
  %15 = alloca %union.__CONST_SOCKADDR_ARG, align 8
  %16 = alloca i32, align 4
  store ptr %0, ptr %8, align 8, !tbaa !24
  store ptr %1, ptr %9, align 8, !tbaa !9
  store i64 %2, ptr %10, align 8, !tbaa !11
  store i32 %3, ptr %11, align 4, !tbaa !33
  store ptr %4, ptr %12, align 8, !tbaa !88
  store i32 %5, ptr %13, align 4, !tbaa !33
  call void @llvm.lifetime.start.p0(i64 4, ptr %14) #12
  %17 = load ptr, ptr %12, align 8, !tbaa !88
  %18 = icmp ne ptr %17, null
  br i1 %18, label %19, label %39

19:                                               ; preds = %6
  %20 = load ptr, ptr %8, align 8, !tbaa !24
  %21 = getelementptr inbounds nuw %struct._php_netstream_data_t, ptr %20, i32 0, i32 0
  %22 = load i32, ptr %21, align 8, !tbaa !26
  %23 = load ptr, ptr %9, align 8, !tbaa !9
  %24 = load i64, ptr %10, align 8, !tbaa !11
  %25 = load i32, ptr %11, align 4, !tbaa !33
  %26 = load ptr, ptr %12, align 8, !tbaa !88
  store ptr %26, ptr %15, align 8, !tbaa !89
  %27 = load i32, ptr %13, align 4, !tbaa !33
  %28 = getelementptr inbounds nuw %union.__CONST_SOCKADDR_ARG, ptr %15, i32 0, i32 0
  %29 = load ptr, ptr %28, align 8
  %30 = call i64 @sendto(i32 noundef %22, ptr noundef %23, i64 noundef %24, i32 noundef %25, ptr %29, i32 noundef %27)
  %31 = trunc i64 %30 to i32
  store i32 %31, ptr %14, align 4, !tbaa !33
  %32 = load i32, ptr %14, align 4, !tbaa !33
  %33 = icmp eq i32 %32, -1
  br i1 %33, label %34, label %35

34:                                               ; preds = %19
  br label %37

35:                                               ; preds = %19
  %36 = load i32, ptr %14, align 4, !tbaa !33
  br label %37

37:                                               ; preds = %35, %34
  %38 = phi i32 [ -1, %34 ], [ %36, %35 ]
  store i32 %38, ptr %7, align 4
  store i32 1, ptr %16, align 4
  br label %54

39:                                               ; preds = %6
  %40 = load ptr, ptr %8, align 8, !tbaa !24
  %41 = getelementptr inbounds nuw %struct._php_netstream_data_t, ptr %40, i32 0, i32 0
  %42 = load i32, ptr %41, align 8, !tbaa !26
  %43 = load ptr, ptr %9, align 8, !tbaa !9
  %44 = load i64, ptr %10, align 8, !tbaa !11
  %45 = load i32, ptr %11, align 4, !tbaa !33
  %46 = call i64 @send(i32 noundef %42, ptr noundef %43, i64 noundef %44, i32 noundef %45)
  %47 = trunc i64 %46 to i32
  store i32 %47, ptr %14, align 4, !tbaa !33
  %48 = icmp eq i32 %47, -1
  br i1 %48, label %49, label %50

49:                                               ; preds = %39
  br label %52

50:                                               ; preds = %39
  %51 = load i32, ptr %14, align 4, !tbaa !33
  br label %52

52:                                               ; preds = %50, %49
  %53 = phi i32 [ -1, %49 ], [ %51, %50 ]
  store i32 %53, ptr %7, align 4
  store i32 1, ptr %16, align 4
  br label %54

54:                                               ; preds = %52, %37
  call void @llvm.lifetime.end.p0(i64 4, ptr %14) #12
  %55 = load i32, ptr %7, align 4
  ret i32 %55
}