; Function Attrs: inlinehint nounwind uwtable
define internal fastcc i32 @sock_sendto(ptr noundef nonnull readonly captures(none) %0, ptr noundef %1, i64 noundef %2, i32 noundef range(i32 0, 2) %3, ptr noundef %4, i32 noundef %5) unnamed_addr #13 {
  %.not = icmp eq ptr %4, null
  %7 = load i32, ptr %0, align 8, !tbaa !21
  br i1 %.not, label %10, label %8

8:                                                ; preds = %6
  %9 = tail call i64 @sendto(i32 noundef %7, ptr noundef %1, i64 noundef %2, i32 noundef %3, ptr nonnull %4, i32 noundef %5) #15
  br label %12

10:                                               ; preds = %6
  %11 = tail call i64 @send(i32 noundef %7, ptr noundef %1, i64 noundef %2, i32 noundef %3) #15
  br label %12

12:                                               ; preds = %10, %8
  %.0.in = phi i64 [ %9, %8 ], [ %11, %10 ]
  %.0 = trunc i64 %.0.in to i32
  ret i32 %.0
}